target datalayout = "e-m:e-p270:32:32-p271:32:32-p272:64:64-i64:64-i128:128-f80:128-n8:16:32:64-S128"
target triple = "x86_64-pc-linux-gnu"

%struct.lxb_html_tree = type { ptr, ptr, ptr, ptr, ptr, ptr, ptr, %struct.lxb_html_tree_pending_table_t, ptr, i8, i8, i8, i8, i8, i8, ptr, ptr, ptr, i32, i64 }
%struct.lxb_html_tree_pending_table_t = type { ptr, i8 }

; Function Attrs: nounwind uwtable
define hidden void @lxb_html_tree_clean(ptr noundef %0) #0 {
  %2 = alloca ptr, align 8
  store ptr %0, ptr %2, align 8
  %3 = load ptr, ptr %2, align 8
  %4 = getelementptr inbounds %struct.lxb_html_tree, ptr %3, i32 0, i32 4
  %5 = load ptr, ptr %4, align 8
  call void @lexbor_array_clean(ptr noundef %5)
  %6 = load ptr, ptr %2, align 8
  %7 = getelementptr inbounds %struct.lxb_html_tree, ptr %6, i32 0, i32 5
  %8 = load ptr, ptr %7, align 8
  call void @lexbor_array_clean(ptr noundef %8)
  %9 = load ptr, ptr %2, align 8
  %10 = getelementptr inbounds %struct.lxb_html_tree, ptr %9, i32 0, i32 6
  %11 = load ptr, ptr %10, align 8
  call void @lexbor_array_obj_clean(ptr noundef %11)
  %12 = load ptr, ptr %2, align 8
  %13 = getelementptr inbounds %struct.lxb_html_tree, ptr %12, i32 0, i32 7
  %14 = getelementptr inbounds %struct.lxb_html_tree_pending_table_t, ptr %13, i32 0, i32 0
  %15 = load ptr, ptr %14, align 8
  call void @lexbor_array_obj_clean(ptr noundef %15)
  %16 = load ptr, ptr %2, align 8
  %17 = getelementptr inbounds %struct.lxb_html_tree, ptr %16, i32 0, i32 8
  %18 = load ptr, ptr %17, align 8
  call void @lexbor_array_obj_clean(ptr noundef %18)
  %19 = load ptr, ptr %2, align 8
  %20 = getelementptr inbounds %struct.lxb_html_tree, ptr %19, i32 0, i32 1
  store ptr null, ptr %20, align 8
  %21 = load ptr, ptr %2, align 8
  %22 = getelementptr inbounds %struct.lxb_html_tree, ptr %21, i32 0, i32 2
  store ptr null, ptr %22, align 8
  %23 = load ptr, ptr %2, align 8
  %24 = getelementptr inbounds %struct.lxb_html_tree, ptr %23, i32 0, i32 3
  store ptr null, ptr %24, align 8
  %25 = load ptr, ptr %2, align 8
  %26 = getelementptr inbounds %struct.lxb_html_tree, ptr %25, i32 0, i32 9
  store i8 0, ptr %26, align 8
  %27 = load ptr, ptr %2, align 8
  %28 = getelementptr inbounds %struct.lxb_html_tree, ptr %27, i32 0, i32 10
  store i8 1, ptr %28, align 1
  %29 = load ptr, ptr %2, align 8
  %30 = getelementptr inbounds %struct.lxb_html_tree, ptr %29, i32 0, i32 15
  store ptr @lxb_html_tree_insertion_mode_initial, ptr %30, align 8
  %31 = load ptr, ptr %2, align 8
  %32 = getelementptr inbounds %struct.lxb_html_tree, ptr %31, i32 0, i32 17
  store ptr null, ptr %32, align 8
  %33 = load ptr, ptr %2, align 8
  %34 = getelementptr inbounds %struct.lxb_html_tree, ptr %33, i32 0, i32 18
  store i32 0, ptr %34, align 8
  ret void
}