; Function Attrs: nounwind uwtable
define hidden void @lxb_html_tree_clean(ptr nocapture noundef %0) local_unnamed_addr #0 {
  %2 = getelementptr inbounds i8, ptr %0, i64 32
  %3 = load ptr, ptr %2, align 8
  tail call void @lexbor_array_clean(ptr noundef %3) #9
  %4 = getelementptr inbounds i8, ptr %0, i64 40
  %5 = load ptr, ptr %4, align 8
  tail call void @lexbor_array_clean(ptr noundef %5) #9
  %6 = getelementptr inbounds i8, ptr %0, i64 48
  %7 = load ptr, ptr %6, align 8
  tail call void @lexbor_array_obj_clean(ptr noundef %7) #9
  %8 = getelementptr inbounds i8, ptr %0, i64 56
  %9 = load ptr, ptr %8, align 8
  tail call void @lexbor_array_obj_clean(ptr noundef %9) #9
  %10 = getelementptr inbounds i8, ptr %0, i64 72
  %11 = load ptr, ptr %10, align 8
  tail call void @lexbor_array_obj_clean(ptr noundef %11) #9
  %12 = getelementptr inbounds i8, ptr %0, i64 8
  %13 = getelementptr inbounds i8, ptr %0, i64 80
  store i8 0, ptr %13, align 8
  %14 = getelementptr inbounds i8, ptr %0, i64 81
  tail call void @llvm.memset.p0.i64(ptr noundef nonnull align 8 dereferenceable(24) %12, i8 0, i64 24, i1 false)
  store i8 1, ptr %14, align 1
  %15 = getelementptr inbounds i8, ptr %0, i64 88
  store ptr @lxb_html_tree_insertion_mode_initial, ptr %15, align 8
  %16 = getelementptr inbounds i8, ptr %0, i64 104
  store ptr null, ptr %16, align 8
  %17 = getelementptr inbounds i8, ptr %0, i64 112
  store i32 0, ptr %17, align 8
  ret void
}